; Function Attrs: mustprogress uwtable
define void @_ZNK10open_spiel12connect_four16ConnectFourState8ToStringB5cxx11Ev(ptr dead_on_unwind noalias nonnull writable sret(%"class.std::__cxx11::basic_string") align 8 %0, ptr noundef nonnull readonly align 8 captures(none) dereferenceable(236) %1) unnamed_addr #3 align 2 personality ptr @__gxx_personality_v0 {
  %3 = alloca %"class.std::__cxx11::basic_string", align 8
  tail call void @_ZNSt7__cxx1112basic_stringIcSt11char_traitsIcESaIcEEC1Ev(ptr noundef nonnull align 8 dereferenceable(32) %0) #25
  %4 = getelementptr inbounds nuw i8, ptr %1, i64 68
  br label %.preheader

.preheader:                                       ; preds = %2, %17
  %indvars.iv16 = phi i64 [ 5, %2 ], [ %indvars.iv.next17, %17 ]
  %5 = mul nuw nsw i64 %indvars.iv16, 7
  br label %6

6:                                                ; preds = %.preheader, %12
  %indvars.iv = phi i64 [ 0, %.preheader ], [ %indvars.iv.next, %12 ]
  %7 = add nuw nsw i64 %indvars.iv, %5
  %8 = getelementptr inbounds nuw [42 x i32], ptr %4, i64 0, i64 %7
  %9 = load i32, ptr %8, align 4
  invoke fastcc void @_ZN10open_spiel12connect_four12_GLOBAL__N_113StateToStringB5cxx11ENS0_9CellStateE(ptr dead_on_unwind noalias writable align 8 %3, i32 noundef %9)
          to label %10 unwind label %.loopexit

10:                                               ; preds = %6
  %11 = invoke noundef nonnull align 8 dereferenceable(32) ptr @_ZNSt7__cxx1112basic_stringIcSt11char_traitsIcESaIcEE6appendERKS4_(ptr noundef nonnull align 8 dereferenceable(32) %0, ptr noundef nonnull align 8 dereferenceable(32) %3)
          to label %12 unwind label %13

12:                                               ; preds = %10
  call void @_ZNSt7__cxx1112basic_stringIcSt11char_traitsIcESaIcEED1Ev(ptr noundef nonnull align 8 dereferenceable(32) %3) #25
  %indvars.iv.next = add nuw nsw i64 %indvars.iv, 1
  %exitcond.not = icmp eq i64 %indvars.iv.next, 7
  br i1 %exitcond.not, label %15, label %6, !llvm.loop !11

.loopexit:                                        ; preds = %6
  %lpad.loopexit = landingpad { ptr, i32 }
          cleanup
  br label %19

.loopexit.split-lp:                               ; preds = %15
  %lpad.loopexit.split-lp = landingpad { ptr, i32 }
          cleanup
  br label %19

13:                                               ; preds = %10
  %14 = landingpad { ptr, i32 }
          cleanup
  call void @_ZNSt7__cxx1112basic_stringIcSt11char_traitsIcESaIcEED1Ev(ptr noundef nonnull align 8 dereferenceable(32) %3) #25
  br label %19

15:                                               ; preds = %12
  %16 = invoke noundef nonnull align 8 dereferenceable(32) ptr @_ZNSt7__cxx1112basic_stringIcSt11char_traitsIcESaIcEE6appendEPKc(ptr noundef nonnull align 8 dereferenceable(32) %0, ptr noundef nonnull @.str.12)
          to label %17 unwind label %.loopexit.split-lp

17:                                               ; preds = %15
  %indvars.iv.next17 = add nsw i64 %indvars.iv16, -1
  %.not = icmp eq i64 %indvars.iv16, 0
  br i1 %.not, label %18, label %.preheader, !llvm.loop !12

18:                                               ; preds = %17
  ret void

19:                                               ; preds = %.loopexit, %.loopexit.split-lp, %13
  %.pn = phi { ptr, i32 } [ %14, %13 ], [ %lpad.loopexit, %.loopexit ], [ %lpad.loopexit.split-lp, %.loopexit.split-lp ]
  call void @_ZNSt7__cxx1112basic_stringIcSt11char_traitsIcESaIcEED1Ev(ptr noundef nonnull align 8 dereferenceable(32) %0) #25
  resume { ptr, i32 } %.pn
}